target datalayout = "e-m:e-p270:32:32-p271:32:32-p272:64:64-i64:64-i128:128-f80:128-n8:16:32:64-S128"
target triple = "x86_64-pc-linux-gnu"

%struct.VVCParamSets = type { [16 x ptr], [64 x ptr], [8 x ptr], [4 x ptr], [8 x ptr], i16 }

; Function Attrs: nounwind uwtable
define void @ff_vvc_ps_uninit(ptr noundef %0) #0 {
  %2 = alloca ptr, align 8
  %3 = alloca i32, align 4
  %4 = alloca i32, align 4
  %5 = alloca i32, align 4
  %6 = alloca i32, align 4
  %7 = alloca i32, align 4
  store ptr %0, ptr %2, align 8, !tbaa !13
  call void @llvm.lifetime.start.p0(i64 4, ptr %3) #10
  store i32 0, ptr %3, align 4, !tbaa !11
  br label %8

8:                                                ; preds = %19, %1
  %9 = load i32, ptr %3, align 4, !tbaa !11
  %10 = sext i32 %9 to i64
  %11 = icmp ult i64 %10, 8
  br i1 %11, label %13, label %12

12:                                               ; preds = %8
  call void @llvm.lifetime.end.p0(i64 4, ptr %3) #10
  br label %22

13:                                               ; preds = %8
  %14 = load ptr, ptr %2, align 8, !tbaa !13
  %15 = getelementptr inbounds nuw %struct.VVCParamSets, ptr %14, i32 0, i32 4
  %16 = load i32, ptr %3, align 4, !tbaa !11
  %17 = sext i32 %16 to i64
  %18 = getelementptr inbounds [8 x ptr], ptr %15, i64 0, i64 %17
  call void @av_refstruct_unref(ptr noundef %18)
  br label %19

19:                                               ; preds = %13
  %20 = load i32, ptr %3, align 4, !tbaa !11
  %21 = add nsw i32 %20, 1
  store i32 %21, ptr %3, align 4, !tbaa !11
  br label %8, !llvm.loop !101

22:                                               ; preds = %12
  call void @llvm.lifetime.start.p0(i64 4, ptr %4) #10
  store i32 0, ptr %4, align 4, !tbaa !11
  br label %23

23:                                               ; preds = %34, %22
  %24 = load i32, ptr %4, align 4, !tbaa !11
  %25 = sext i32 %24 to i64
  %26 = icmp ult i64 %25, 4
  br i1 %26, label %28, label %27

27:                                               ; preds = %23
  call void @llvm.lifetime.end.p0(i64 4, ptr %4) #10
  br label %37

28:                                               ; preds = %23
  %29 = load ptr, ptr %2, align 8, !tbaa !13
  %30 = getelementptr inbounds nuw %struct.VVCParamSets, ptr %29, i32 0, i32 3
  %31 = load i32, ptr %4, align 4, !tbaa !11
  %32 = sext i32 %31 to i64
  %33 = getelementptr inbounds [4 x ptr], ptr %30, i64 0, i64 %32
  call void @av_refstruct_unref(ptr noundef %33)
  br label %34

34:                                               ; preds = %28
  %35 = load i32, ptr %4, align 4, !tbaa !11
  %36 = add nsw i32 %35, 1
  store i32 %36, ptr %4, align 4, !tbaa !11
  br label %23, !llvm.loop !102

37:                                               ; preds = %27
  call void @llvm.lifetime.start.p0(i64 4, ptr %5) #10
  store i32 0, ptr %5, align 4, !tbaa !11
  br label %38

38:                                               ; preds = %49, %37
  %39 = load i32, ptr %5, align 4, !tbaa !11
  %40 = sext i32 %39 to i64
  %41 = icmp ult i64 %40, 8
  br i1 %41, label %43, label %42

42:                                               ; preds = %38
  call void @llvm.lifetime.end.p0(i64 4, ptr %5) #10
  br label %52

43:                                               ; preds = %38
  %44 = load ptr, ptr %2, align 8, !tbaa !13
  %45 = getelementptr inbounds nuw %struct.VVCParamSets, ptr %44, i32 0, i32 2
  %46 = load i32, ptr %5, align 4, !tbaa !11
  %47 = sext i32 %46 to i64
  %48 = getelementptr inbounds [8 x ptr], ptr %45, i64 0, i64 %47
  call void @av_refstruct_unref(ptr noundef %48)
  br label %49

49:                                               ; preds = %43
  %50 = load i32, ptr %5, align 4, !tbaa !11
  %51 = add nsw i32 %50, 1
  store i32 %51, ptr %5, align 4, !tbaa !11
  br label %38, !llvm.loop !103

52:                                               ; preds = %42
  call void @llvm.lifetime.start.p0(i64 4, ptr %6) #10
  store i32 0, ptr %6, align 4, !tbaa !11
  br label %53

53:                                               ; preds = %64, %52
  %54 = load i32, ptr %6, align 4, !tbaa !11
  %55 = sext i32 %54 to i64
  %56 = icmp ult i64 %55, 16
  br i1 %56, label %58, label %57

57:                                               ; preds = %53
  call void @llvm.lifetime.end.p0(i64 4, ptr %6) #10
  br label %67

58:                                               ; preds = %53
  %59 = load ptr, ptr %2, align 8, !tbaa !13
  %60 = getelementptr inbounds nuw %struct.VVCParamSets, ptr %59, i32 0, i32 0
  %61 = load i32, ptr %6, align 4, !tbaa !11
  %62 = sext i32 %61 to i64
  %63 = getelementptr inbounds [16 x ptr], ptr %60, i64 0, i64 %62
  call void @av_refstruct_unref(ptr noundef %63)
  br label %64

64:                                               ; preds = %58
  %65 = load i32, ptr %6, align 4, !tbaa !11
  %66 = add nsw i32 %65, 1
  store i32 %66, ptr %6, align 4, !tbaa !11
  br label %53, !llvm.loop !104

67:                                               ; preds = %57
  call void @llvm.lifetime.start.p0(i64 4, ptr %7) #10
  store i32 0, ptr %7, align 4, !tbaa !11
  br label %68

68:                                               ; preds = %79, %67
  %69 = load i32, ptr %7, align 4, !tbaa !11
  %70 = sext i32 %69 to i64
  %71 = icmp ult i64 %70, 64
  br i1 %71, label %73, label %72

72:                                               ; preds = %68
  call void @llvm.lifetime.end.p0(i64 4, ptr %7) #10
  br label %82

73:                                               ; preds = %68
  %74 = load ptr, ptr %2, align 8, !tbaa !13
  %75 = getelementptr inbounds nuw %struct.VVCParamSets, ptr %74, i32 0, i32 1
  %76 = load i32, ptr %7, align 4, !tbaa !11
  %77 = sext i32 %76 to i64
  %78 = getelementptr inbounds [64 x ptr], ptr %75, i64 0, i64 %77
  call void @av_refstruct_unref(ptr noundef %78)
  br label %79

79:                                               ; preds = %73
  %80 = load i32, ptr %7, align 4, !tbaa !11
  %81 = add nsw i32 %80, 1
  store i32 %81, ptr %7, align 4, !tbaa !11
  br label %68, !llvm.loop !105

82:                                               ; preds = %72
  ret void
}