; Function Attrs: nounwind uwtable
define void @ff_vvc_ps_uninit(ptr noundef %0) local_unnamed_addr #0 {
  %2 = getelementptr inbounds nuw i8, ptr %0, i64 736
  br label %4

.preheader30:                                     ; preds = %4
  %3 = getelementptr inbounds nuw i8, ptr %0, i64 704
  br label %7

4:                                                ; preds = %1, %4
  %indvars.iv = phi i64 [ 0, %1 ], [ %indvars.iv.next, %4 ]
  %5 = getelementptr inbounds nuw [8 x ptr], ptr %2, i64 0, i64 %indvars.iv
  tail call void @av_refstruct_unref(ptr noundef nonnull %5) #8
  %indvars.iv.next = add nuw nsw i64 %indvars.iv, 1
  %exitcond.not = icmp eq i64 %indvars.iv.next, 8
  br i1 %exitcond.not, label %.preheader30, label %4, !llvm.loop !258

.preheader29:                                     ; preds = %7
  %6 = getelementptr inbounds nuw i8, ptr %0, i64 640
  br label %9

7:                                                ; preds = %.preheader30, %7
  %indvars.iv37 = phi i64 [ 0, %.preheader30 ], [ %indvars.iv.next38, %7 ]
  %8 = getelementptr inbounds nuw [4 x ptr], ptr %3, i64 0, i64 %indvars.iv37
  tail call void @av_refstruct_unref(ptr noundef nonnull %8) #8
  %indvars.iv.next38 = add nuw nsw i64 %indvars.iv37, 1
  %exitcond40.not = icmp eq i64 %indvars.iv.next38, 4
  br i1 %exitcond40.not, label %.preheader29, label %7, !llvm.loop !259

9:                                                ; preds = %.preheader29, %9
  %indvars.iv41 = phi i64 [ 0, %.preheader29 ], [ %indvars.iv.next42, %9 ]
  %10 = getelementptr inbounds nuw [8 x ptr], ptr %6, i64 0, i64 %indvars.iv41
  tail call void @av_refstruct_unref(ptr noundef nonnull %10) #8
  %indvars.iv.next42 = add nuw nsw i64 %indvars.iv41, 1
  %exitcond44.not = icmp eq i64 %indvars.iv.next42, 8
  br i1 %exitcond44.not, label %.preheader28, label %9, !llvm.loop !260

.preheader:                                       ; preds = %.preheader28
  %11 = getelementptr inbounds nuw i8, ptr %0, i64 128
  br label %14

.preheader28:                                     ; preds = %9, %.preheader28
  %indvars.iv45 = phi i64 [ %indvars.iv.next46, %.preheader28 ], [ 0, %9 ]
  %12 = getelementptr inbounds nuw [16 x ptr], ptr %0, i64 0, i64 %indvars.iv45
  tail call void @av_refstruct_unref(ptr noundef %12) #8
  %indvars.iv.next46 = add nuw nsw i64 %indvars.iv45, 1
  %exitcond48.not = icmp eq i64 %indvars.iv.next46, 16
  br i1 %exitcond48.not, label %.preheader, label %.preheader28, !llvm.loop !261

13:                                               ; preds = %14
  ret void

14:                                               ; preds = %.preheader, %14
  %indvars.iv49 = phi i64 [ 0, %.preheader ], [ %indvars.iv.next50, %14 ]
  %15 = getelementptr inbounds nuw [64 x ptr], ptr %11, i64 0, i64 %indvars.iv49
  tail call void @av_refstruct_unref(ptr noundef nonnull %15) #8
  %indvars.iv.next50 = add nuw nsw i64 %indvars.iv49, 1
  %exitcond52.not = icmp eq i64 %indvars.iv.next50, 64
  br i1 %exitcond52.not, label %13, label %14, !llvm.loop !262
}